target datalayout = "e-m:e-p270:32:32-p271:32:32-p272:64:64-i64:64-i128:128-f80:128-n8:16:32:64-S128"
target triple = "x86_64-pc-linux-gnu"

%struct.rb_callinfo = type { i64, ptr, i64, i64, i64 }
%struct.rb_callinfo_kwarg = type { i32, i32, [0 x i64] }

; Function Attrs: nounwind sspstrong uwtable
define internal i64 @vm_ci_hash(i64 noundef %0) #0 {
  %2 = alloca i64, align 8
  %3 = alloca ptr, align 8
  %4 = alloca i64, align 8
  %5 = alloca i32, align 4
  store i64 %0, ptr %2, align 8, !tbaa !31
  call void @llvm.lifetime.start.p0(i64 8, ptr %3) #21
  %6 = load i64, ptr %2, align 8, !tbaa !31
  %7 = inttoptr i64 %6 to ptr
  store ptr %7, ptr %3, align 8, !tbaa !142
  call void @llvm.lifetime.start.p0(i64 8, ptr %4) #21
  %8 = load ptr, ptr %3, align 8, !tbaa !142
  %9 = getelementptr inbounds nuw %struct.rb_callinfo, ptr %8, i32 0, i32 2
  %10 = load i64, ptr %9, align 8, !tbaa !209
  %11 = call i64 @rb_hash_start(i64 noundef %10)
  store i64 %11, ptr %4, align 8, !tbaa !31
  %12 = load i64, ptr %4, align 8, !tbaa !31
  %13 = load ptr, ptr %3, align 8, !tbaa !142
  %14 = getelementptr inbounds nuw %struct.rb_callinfo, ptr %13, i32 0, i32 3
  %15 = load i64, ptr %14, align 8, !tbaa !171
  %16 = call i64 @rb_st_hash_uint(i64 noundef %12, i64 noundef %15) #36
  store i64 %16, ptr %4, align 8, !tbaa !31
  %17 = load i64, ptr %4, align 8, !tbaa !31
  %18 = load ptr, ptr %3, align 8, !tbaa !142
  %19 = getelementptr inbounds nuw %struct.rb_callinfo, ptr %18, i32 0, i32 4
  %20 = load i64, ptr %19, align 8, !tbaa !210
  %21 = call i64 @rb_st_hash_uint(i64 noundef %17, i64 noundef %20) #36
  store i64 %21, ptr %4, align 8, !tbaa !31
  %22 = load ptr, ptr %3, align 8, !tbaa !142
  %23 = getelementptr inbounds nuw %struct.rb_callinfo, ptr %22, i32 0, i32 1
  %24 = load ptr, ptr %23, align 8, !tbaa !208
  %25 = icmp ne ptr %24, null
  br i1 %25, label %26, label %51

26:                                               ; preds = %1
  call void @llvm.lifetime.start.p0(i64 4, ptr %5) #21
  store i32 0, ptr %5, align 4, !tbaa !24
  br label %27

27:                                               ; preds = %47, %26
  %28 = load i32, ptr %5, align 4, !tbaa !24
  %29 = load ptr, ptr %3, align 8, !tbaa !142
  %30 = getelementptr inbounds nuw %struct.rb_callinfo, ptr %29, i32 0, i32 1
  %31 = load ptr, ptr %30, align 8, !tbaa !208
  %32 = getelementptr inbounds nuw %struct.rb_callinfo_kwarg, ptr %31, i32 0, i32 0
  %33 = load i32, ptr %32, align 8, !tbaa !24
  %34 = icmp slt i32 %28, %33
  br i1 %34, label %36, label %35

35:                                               ; preds = %27
  call void @llvm.lifetime.end.p0(i64 4, ptr %5) #21
  br label %50

36:                                               ; preds = %27
  %37 = load i64, ptr %4, align 8, !tbaa !31
  %38 = load ptr, ptr %3, align 8, !tbaa !142
  %39 = getelementptr inbounds nuw %struct.rb_callinfo, ptr %38, i32 0, i32 1
  %40 = load ptr, ptr %39, align 8, !tbaa !208
  %41 = getelementptr inbounds nuw %struct.rb_callinfo_kwarg, ptr %40, i32 0, i32 2
  %42 = load i32, ptr %5, align 4, !tbaa !24
  %43 = sext i32 %42 to i64
  %44 = getelementptr [0 x i64], ptr %41, i64 0, i64 %43
  %45 = load i64, ptr %44, align 8, !tbaa !31
  %46 = call i64 @rb_st_hash_uint(i64 noundef %37, i64 noundef %45) #36
  store i64 %46, ptr %4, align 8, !tbaa !31
  br label %47

47:                                               ; preds = %36
  %48 = load i32, ptr %5, align 4, !tbaa !24
  %49 = add i32 %48, 1
  store i32 %49, ptr %5, align 4, !tbaa !24
  br label %27, !llvm.loop !852

50:                                               ; preds = %35
  br label %51

51:                                               ; preds = %50, %1
  %52 = load i64, ptr %4, align 8, !tbaa !31
  call void @llvm.lifetime.end.p0(i64 8, ptr %4) #21
  call void @llvm.lifetime.end.p0(i64 8, ptr %3) #21
  ret i64 %52
}