; Function Attrs: nounwind sspstrong uwtable
define internal i64 @vm_ci_hash(i64 noundef %0) #2 {
  %2 = inttoptr i64 %0 to ptr
  %3 = getelementptr inbounds nuw i8, ptr %2, i64 16
  %4 = load i64, ptr %3, align 8, !tbaa !154
  %5 = tail call i64 @rb_hash_start(i64 noundef %4) #21
  %6 = getelementptr inbounds nuw i8, ptr %2, i64 24
  %7 = load i64, ptr %6, align 8, !tbaa !169
  %8 = tail call i64 @rb_st_hash_uint(i64 noundef %5, i64 noundef %7) #64
  %9 = getelementptr inbounds nuw i8, ptr %2, i64 32
  %10 = load i64, ptr %9, align 8, !tbaa !168
  %11 = tail call i64 @rb_st_hash_uint(i64 noundef %8, i64 noundef %10) #64
  %12 = getelementptr inbounds nuw i8, ptr %2, i64 8
  %13 = load ptr, ptr %12, align 8, !tbaa !223
  %.not = icmp eq ptr %13, null
  br i1 %.not, label %.loopexit, label %.preheader

.preheader:                                       ; preds = %1
  %14 = load i32, ptr %13, align 8, !tbaa !139
  %15 = icmp sgt i32 %14, 0
  br i1 %15, label %.lr.ph, label %.loopexit

.lr.ph:                                           ; preds = %.preheader
  %16 = getelementptr inbounds nuw i8, ptr %13, i64 8
  %wide.trip.count = zext nneg i32 %14 to i64
  br label %17

17:                                               ; preds = %.lr.ph, %17
  %indvars.iv = phi i64 [ 0, %.lr.ph ], [ %indvars.iv.next, %17 ]
  %.114 = phi i64 [ %11, %.lr.ph ], [ %20, %17 ]
  %18 = getelementptr [0 x i64], ptr %16, i64 0, i64 %indvars.iv
  %19 = load i64, ptr %18, align 8, !tbaa !7
  %20 = tail call i64 @rb_st_hash_uint(i64 noundef %.114, i64 noundef %19) #64
  %indvars.iv.next = add nuw nsw i64 %indvars.iv, 1
  %exitcond.not = icmp eq i64 %indvars.iv.next, %wide.trip.count
  br i1 %exitcond.not, label %.loopexit, label %17, !llvm.loop !797

.loopexit:                                        ; preds = %17, %.preheader, %1
  %.013 = phi i64 [ %11, %1 ], [ %11, %.preheader ], [ %20, %17 ]
  ret i64 %.013
}